; Function Attrs: mustprogress nounwind uwtable
define hidden void @_ZN2os33fetch_compiled_frame_from_contextEPKv(ptr dead_on_unwind noalias writable sret(%class.frame) align 8 %0, ptr nocapture noundef readonly %1) local_unnamed_addr #5 align 2 {
  %3 = getelementptr inbounds i8, ptr %1, i64 120
  %4 = load i64, ptr %3, align 8
  %5 = inttoptr i64 %4 to ptr
  %6 = getelementptr inbounds i8, ptr %1, i64 160
  %7 = load i64, ptr %6, align 8
  %8 = inttoptr i64 %7 to ptr
  %9 = getelementptr inbounds i8, ptr %8, i64 8
  %10 = load i64, ptr %8, align 8
  %11 = inttoptr i64 %10 to ptr
  store ptr %9, ptr %0, align 8
  %12 = getelementptr inbounds i8, ptr %0, i64 48
  store ptr %9, ptr %12, align 8
  %13 = getelementptr inbounds i8, ptr %0, i64 40
  store ptr %5, ptr %13, align 8
  %14 = getelementptr inbounds i8, ptr %0, i64 8
  store ptr %11, ptr %14, align 8
  %15 = getelementptr inbounds i8, ptr %0, i64 24
  store ptr null, ptr %15, align 8
  %16 = getelementptr inbounds i8, ptr %0, i64 36
  store i8 0, ptr %16, align 4
  %17 = tail call noundef ptr @_ZN9CodeCache9find_blobEPv(ptr noundef %11) #12
  %18 = getelementptr inbounds i8, ptr %0, i64 16
  store ptr %17, ptr %18, align 8
  %19 = icmp eq ptr %17, null
  br i1 %19, label %_ZNK5frame21get_deopt_original_pcEv.exit.thread.i.i.i, label %20

20:                                               ; preds = %2
  %21 = getelementptr inbounds i8, ptr %17, i64 52
  %22 = load i8, ptr %21, align 4
  %.not.i.i.i.i = icmp eq i8 %22, 1
  br i1 %.not.i.i.i.i, label %23, label %_ZNK5frame21get_deopt_original_pcEv.exit.thread.i.i.i

23:                                               ; preds = %20
  %24 = getelementptr inbounds i8, ptr %17, i64 168
  %25 = load i32, ptr %24, align 8
  %26 = sext i32 %25 to i64
  %27 = getelementptr inbounds i8, ptr %17, i64 %26
  %28 = icmp eq ptr %27, %11
  br i1 %28, label %_ZNK5frame21get_deopt_original_pcEv.exit.i.i.i, label %29

29:                                               ; preds = %23
  %30 = getelementptr inbounds i8, ptr %17, i64 209
  %31 = load i8, ptr %30, align 1
  %32 = icmp eq i8 %31, 3
  %33 = getelementptr inbounds i8, ptr %27, i64 5
  %34 = icmp eq ptr %33, %11
  %or.cond.i.i.i.i.i = select i1 %32, i1 %34, i1 false
  br i1 %or.cond.i.i.i.i.i, label %_ZNK5frame21get_deopt_original_pcEv.exit.i.i.i, label %_ZN7nmethod14is_deopt_entryEPh.exit.thread3.i.i.i.i.i

_ZN7nmethod14is_deopt_entryEPh.exit.thread3.i.i.i.i.i: ; preds = %29
  %35 = getelementptr inbounds i8, ptr %17, i64 172
  %36 = load i32, ptr %35, align 4
  %37 = sext i32 %36 to i64
  %38 = getelementptr inbounds i8, ptr %17, i64 %37
  %39 = icmp ne ptr %38, %11
  %brmerge.i.not.i.i.i.i = and i1 %32, %39
  br i1 %brmerge.i.not.i.i.i.i, label %40, label %_ZN7nmethod11is_deopt_pcEPh.exit.i.i.i.i

40:                                               ; preds = %_ZN7nmethod14is_deopt_entryEPh.exit.thread3.i.i.i.i.i
  %41 = getelementptr inbounds i8, ptr %38, i64 5
  %42 = icmp eq ptr %41, %11
  br i1 %42, label %_ZNK5frame21get_deopt_original_pcEv.exit.i.i.i, label %_ZNK5frame21get_deopt_original_pcEv.exit.thread.i.i.i

_ZN7nmethod11is_deopt_pcEPh.exit.i.i.i.i:         ; preds = %_ZN7nmethod14is_deopt_entryEPh.exit.thread3.i.i.i.i.i
  br i1 %39, label %_ZNK5frame21get_deopt_original_pcEv.exit.thread.i.i.i, label %_ZNK5frame21get_deopt_original_pcEv.exit.i.i.i

_ZNK5frame21get_deopt_original_pcEv.exit.i.i.i:   ; preds = %_ZN7nmethod11is_deopt_pcEPh.exit.i.i.i.i, %40, %29, %23
  %43 = tail call noundef ptr @_ZN7nmethod12orig_pc_addrEPK5frame(ptr noundef nonnull align 8 dereferenceable(214) %17, ptr noundef nonnull %0) #12
  %44 = load ptr, ptr %43, align 8
  %.not.i.i.i = icmp eq ptr %44, null
  br i1 %.not.i.i.i, label %_ZNK5frame21get_deopt_original_pcEv.exit._ZNK5frame21get_deopt_original_pcEv.exit.thread_crit_edge.i.i.i, label %45

_ZNK5frame21get_deopt_original_pcEv.exit._ZNK5frame21get_deopt_original_pcEv.exit.thread_crit_edge.i.i.i: ; preds = %_ZNK5frame21get_deopt_original_pcEv.exit.i.i.i
  %.pre.i.i.i = load ptr, ptr %18, align 8
  br label %_ZNK5frame21get_deopt_original_pcEv.exit.thread.i.i.i

45:                                               ; preds = %_ZNK5frame21get_deopt_original_pcEv.exit.i.i.i
  store ptr %44, ptr %14, align 8
  %46 = getelementptr inbounds i8, ptr %0, i64 32
  store i32 1, ptr %46, align 8
  br label %_ZN5frameC2EPlS0_Ph.exit

_ZNK5frame21get_deopt_original_pcEv.exit.thread.i.i.i: ; preds = %_ZNK5frame21get_deopt_original_pcEv.exit._ZNK5frame21get_deopt_original_pcEv.exit.thread_crit_edge.i.i.i, %_ZN7nmethod11is_deopt_pcEPh.exit.i.i.i.i, %40, %20, %2
  %47 = phi ptr [ %.pre.i.i.i, %_ZNK5frame21get_deopt_original_pcEv.exit._ZNK5frame21get_deopt_original_pcEv.exit.thread_crit_edge.i.i.i ], [ %17, %40 ], [ %17, %20 ], [ %17, %_ZN7nmethod11is_deopt_pcEPh.exit.i.i.i.i ], [ null, %2 ]
  %48 = load ptr, ptr @_ZN13SharedRuntime11_deopt_blobE, align 8
  %49 = icmp eq ptr %47, %48
  %50 = getelementptr inbounds i8, ptr %0, i64 32
  br i1 %49, label %51, label %52

51:                                               ; preds = %_ZNK5frame21get_deopt_original_pcEv.exit.thread.i.i.i
  store i32 1, ptr %50, align 8
  br label %_ZN5frameC2EPlS0_Ph.exit

52:                                               ; preds = %_ZNK5frame21get_deopt_original_pcEv.exit.thread.i.i.i
  store i32 0, ptr %50, align 8
  br label %_ZN5frameC2EPlS0_Ph.exit

_ZN5frameC2EPlS0_Ph.exit:                         ; preds = %45, %51, %52
  ret void
}